; Function Attrs: nounwind uwtable
define ptr @zend_fetch_resource2_ex(ptr noundef readonly %0, ptr noundef %1, i32 noundef %2, i32 noundef %3) local_unnamed_addr #0 {
  %5 = alloca ptr, align 8
  %6 = alloca ptr, align 8
  %7 = icmp eq ptr %0, null
  br i1 %7, label %8, label %13

8:                                                ; preds = %4
  %.not16 = icmp eq ptr %1, null
  br i1 %.not16, label %40, label %9

9:                                                ; preds = %8
  %10 = call ptr @get_active_class_name(ptr noundef nonnull %6) #14
  %11 = load ptr, ptr %6, align 8
  %12 = call ptr @get_active_function_name() #14
  call void (ptr, ...) @zend_type_error(ptr noundef nonnull @.str.2, ptr noundef %10, ptr noundef %11, ptr noundef %12, ptr noundef nonnull %1) #14
  br label %40

13:                                               ; preds = %4
  %14 = getelementptr inbounds i8, ptr %0, i64 8
  %15 = load i8, ptr %14, align 8
  %.not = icmp eq i8 %15, 9
  br i1 %.not, label %21, label %16

16:                                               ; preds = %13
  %.not15 = icmp eq ptr %1, null
  br i1 %.not15, label %40, label %17

17:                                               ; preds = %16
  %18 = call ptr @get_active_class_name(ptr noundef nonnull %6) #14
  %19 = load ptr, ptr %6, align 8
  %20 = call ptr @get_active_function_name() #14
  call void (ptr, ...) @zend_type_error(ptr noundef nonnull @.str.3, ptr noundef %18, ptr noundef %19, ptr noundef %20, ptr noundef nonnull %1) #14
  br label %40

21:                                               ; preds = %13
  %22 = load ptr, ptr %0, align 8
  call void @llvm.lifetime.start.p0(i64 8, ptr nonnull %5)
  %.not.i = icmp eq ptr %22, null
  br i1 %.not.i, label %35, label %23

23:                                               ; preds = %21
  %24 = getelementptr inbounds i8, ptr %22, i64 16
  %25 = load i32, ptr %24, align 8
  %26 = icmp eq i32 %25, %2
  br i1 %26, label %27, label %30

27:                                               ; preds = %23
  %28 = getelementptr inbounds i8, ptr %22, i64 24
  %29 = load ptr, ptr %28, align 8
  br label %zend_fetch_resource2.exit

30:                                               ; preds = %23
  %31 = icmp eq i32 %25, %3
  br i1 %31, label %32, label %35

32:                                               ; preds = %30
  %33 = getelementptr inbounds i8, ptr %22, i64 24
  %34 = load ptr, ptr %33, align 8
  br label %zend_fetch_resource2.exit

35:                                               ; preds = %30, %21
  %.not13.i = icmp eq ptr %1, null
  br i1 %.not13.i, label %zend_fetch_resource2.exit, label %36

36:                                               ; preds = %35
  %37 = call ptr @get_active_class_name(ptr noundef nonnull %5) #14
  %38 = load ptr, ptr %5, align 8
  %39 = call ptr @get_active_function_name() #14
  call void (ptr, ...) @zend_type_error(ptr noundef nonnull @.str.1, ptr noundef %37, ptr noundef %38, ptr noundef %39, ptr noundef nonnull %1) #14
  br label %zend_fetch_resource2.exit

zend_fetch_resource2.exit:                        ; preds = %27, %32, %35, %36
  %.0.i = phi ptr [ %29, %27 ], [ %34, %32 ], [ null, %36 ], [ null, %35 ]
  call void @llvm.lifetime.end.p0(i64 8, ptr nonnull %5)
  br label %40

40:                                               ; preds = %16, %17, %8, %9, %zend_fetch_resource2.exit
  %.0 = phi ptr [ %.0.i, %zend_fetch_resource2.exit ], [ null, %9 ], [ null, %8 ], [ null, %17 ], [ null, %16 ]
  ret ptr %.0
}